; Function Attrs: mustprogress nofree nounwind willreturn uwtable
define noundef ptr @Mig_ManStart() local_unnamed_addr #0 {
Mig_ManAppendObj.exit:
  %0 = tail call noalias dereferenceable_or_null(176) ptr @calloc(i64 noundef 1, i64 noundef 176) #14
  %1 = getelementptr inbounds nuw i8, ptr %0, i64 40
  %2 = getelementptr inbounds nuw i8, ptr %0, i64 48
  %3 = tail call noalias dereferenceable_or_null(4096) ptr @malloc(i64 noundef 4096) #15
  store ptr %3, ptr %2, align 8
  store i32 1024, ptr %1, align 8
  %4 = getelementptr inbounds nuw i8, ptr %0, i64 56
  %5 = getelementptr inbounds nuw i8, ptr %0, i64 64
  %6 = tail call noalias dereferenceable_or_null(4096) ptr @malloc(i64 noundef 4096) #15
  store ptr %6, ptr %5, align 8
  store i32 1024, ptr %4, align 8
  %7 = getelementptr inbounds nuw i8, ptr %0, i64 24
  %8 = getelementptr i8, ptr %0, i64 28
  %9 = tail call noalias dereferenceable_or_null(65568) ptr @malloc(i64 noundef 65568) #15
  %10 = getelementptr inbounds nuw i8, ptr %9, i64 8
  tail call void @llvm.memset.p0.i64(ptr noundef nonnull align 1 dereferenceable(65568) %10, i8 -1, i64 65560, i1 false)
  store ptr %0, ptr %9, align 8
  %11 = getelementptr inbounds nuw i8, ptr %9, i64 16
  %12 = getelementptr inbounds nuw i8, ptr %0, i64 32
  %13 = tail call noalias dereferenceable_or_null(128) ptr @malloc(i64 noundef 128) #15
  store ptr %13, ptr %12, align 8
  store i32 16, ptr %7, align 8
  store i32 1, ptr %8, align 4
  store ptr %11, ptr %13, align 8
  %14 = getelementptr inbounds nuw i8, ptr %0, i64 8
  %.pre.i = load i32, ptr %14, align 8
  %15 = add nsw i32 %.pre.i, 1
  store i32 %15, ptr %14, align 8
  %16 = ashr i32 %.pre.i, 12
  %17 = sext i32 %16 to i64
  %18 = getelementptr inbounds ptr, ptr %13, i64 %17
  %19 = load ptr, ptr %18, align 8
  %20 = and i32 %.pre.i, 4095
  %21 = zext nneg i32 %20 to i64
  %22 = getelementptr inbounds nuw %struct.Mig_Obj_t_, ptr %19, i64 %21, i32 0, i64 3
  %23 = load i32, ptr %22, align 4
  %24 = shl i32 %.pre.i, 1
  %25 = and i32 %23, 1
  %26 = or disjoint i32 %25, %24
  store i32 %26, ptr %22, align 4
  ret ptr %0
}